; Function Attrs: mustprogress uwtable
define hidden void @_ZN3smt15dyn_ack_manager15reset_app_pairsEv(ptr noundef nonnull readonly align 8 captures(none) dereferenceable(232) %0) local_unnamed_addr #4 align 2 {
  %2 = getelementptr inbounds nuw i8, ptr %0, i64 48
  %3 = load ptr, ptr %2, align 8, !tbaa !540
  %4 = icmp eq ptr %3, null
  br i1 %4, label %_ZN6vectorISt4pairIP3appS2_ELb0EjE5resetEv.exit, label %_ZN6vectorISt4pairIP3appS2_ELb0EjE3endEv.exit

_ZN6vectorISt4pairIP3appS2_ELb0EjE3endEv.exit:    ; preds = %1
  %5 = getelementptr inbounds i8, ptr %3, i64 -4
  %6 = load i32, ptr %5, align 4, !tbaa !541
  %7 = zext i32 %6 to i64
  %8 = getelementptr inbounds nuw %"struct.std::pair", ptr %3, i64 %7
  %.not12 = icmp eq i32 %6, 0
  br i1 %.not12, label %._crit_edge.thread18, label %.lr.ph

.lr.ph:                                           ; preds = %_ZN6vectorISt4pairIP3appS2_ELb0EjE3endEv.exit
  %9 = getelementptr inbounds nuw i8, ptr %0, i64 8
  br label %12

._crit_edge:                                      ; preds = %_ZN11ast_manager7dec_refEP3ast.exit11
  %.pre14 = load ptr, ptr %2, align 8, !tbaa !540
  %.not.i = icmp eq ptr %.pre14, null
  br i1 %.not.i, label %_ZN6vectorISt4pairIP3appS2_ELb0EjE5resetEv.exit, label %._crit_edge.thread18

._crit_edge.thread18:                             ; preds = %_ZN6vectorISt4pairIP3appS2_ELb0EjE3endEv.exit, %._crit_edge
  %10 = phi ptr [ %.pre14, %._crit_edge ], [ %3, %_ZN6vectorISt4pairIP3appS2_ELb0EjE3endEv.exit ]
  %11 = getelementptr inbounds i8, ptr %10, i64 -4
  store i32 0, ptr %11, align 4, !tbaa !541
  br label %_ZN6vectorISt4pairIP3appS2_ELb0EjE5resetEv.exit

_ZN6vectorISt4pairIP3appS2_ELb0EjE5resetEv.exit:  ; preds = %1, %._crit_edge, %._crit_edge.thread18
  ret void

12:                                               ; preds = %.lr.ph, %_ZN11ast_manager7dec_refEP3ast.exit11
  %.013 = phi ptr [ %3, %.lr.ph ], [ %30, %_ZN11ast_manager7dec_refEP3ast.exit11 ]
  %13 = load ptr, ptr %9, align 8, !tbaa !542
  %14 = load ptr, ptr %.013, align 8, !tbaa !543
  %.not.i9 = icmp eq ptr %14, null
  br i1 %.not.i9, label %_ZN11ast_manager7dec_refEP3ast.exit, label %15

15:                                               ; preds = %12
  %16 = getelementptr inbounds nuw i8, ptr %14, i64 8
  %17 = load i32, ptr %16, align 4, !tbaa !545
  %18 = add i32 %17, -1
  store i32 %18, ptr %16, align 4, !tbaa !545
  %19 = icmp eq i32 %18, 0
  br i1 %19, label %20, label %_ZN11ast_manager7dec_refEP3ast.exit

20:                                               ; preds = %15
  tail call void @_ZN11ast_manager11delete_nodeEP3ast(ptr noundef nonnull align 8 dereferenceable(976) %13, ptr noundef nonnull %14)
  %.pre = load ptr, ptr %9, align 8, !tbaa !542
  br label %_ZN11ast_manager7dec_refEP3ast.exit

_ZN11ast_manager7dec_refEP3ast.exit:              ; preds = %12, %15, %20
  %21 = phi ptr [ %13, %12 ], [ %13, %15 ], [ %.pre, %20 ]
  %22 = getelementptr inbounds nuw i8, ptr %.013, i64 8
  %23 = load ptr, ptr %22, align 8, !tbaa !547
  %.not.i10 = icmp eq ptr %23, null
  br i1 %.not.i10, label %_ZN11ast_manager7dec_refEP3ast.exit11, label %24

24:                                               ; preds = %_ZN11ast_manager7dec_refEP3ast.exit
  %25 = getelementptr inbounds nuw i8, ptr %23, i64 8
  %26 = load i32, ptr %25, align 4, !tbaa !545
  %27 = add i32 %26, -1
  store i32 %27, ptr %25, align 4, !tbaa !545
  %28 = icmp eq i32 %27, 0
  br i1 %28, label %29, label %_ZN11ast_manager7dec_refEP3ast.exit11

29:                                               ; preds = %24
  tail call void @_ZN11ast_manager11delete_nodeEP3ast(ptr noundef nonnull align 8 dereferenceable(976) %21, ptr noundef nonnull %23)
  br label %_ZN11ast_manager7dec_refEP3ast.exit11

_ZN11ast_manager7dec_refEP3ast.exit11:            ; preds = %_ZN11ast_manager7dec_refEP3ast.exit, %24, %29
  %30 = getelementptr inbounds nuw i8, ptr %.013, i64 16
  %.not = icmp eq ptr %30, %8
  br i1 %.not, label %._crit_edge, label %12
}